; Function Attrs: nounwind uwtable
define i64 @Pa_GetStreamWriteAvailable(ptr noundef %0) local_unnamed_addr #3 {
  %2 = load i32, ptr @initializationCount_, align 4
  %.not.i = icmp eq i32 %2, 0
  %3 = icmp eq ptr %0, null
  %or.cond = or i1 %3, %.not.i
  br i1 %or.cond, label %PaUtil_ValidateStreamPointer.exit.thread, label %4

4:                                                ; preds = %1
  %5 = load i64, ptr %0, align 8
  %.not3.i = icmp eq i64 %5, 405222981
  br i1 %.not3.i, label %PaUtil_ValidateStreamPointer.exit, label %PaUtil_ValidateStreamPointer.exit.thread

PaUtil_ValidateStreamPointer.exit:                ; preds = %4
  %6 = getelementptr inbounds nuw i8, ptr %0, i64 16
  %7 = load ptr, ptr %6, align 8
  %8 = getelementptr inbounds nuw i8, ptr %7, i64 88
  %9 = load ptr, ptr %8, align 8
  %10 = tail call i64 %9(ptr noundef nonnull %0) #12
  br label %PaUtil_ValidateStreamPointer.exit.thread

PaUtil_ValidateStreamPointer.exit.thread:         ; preds = %4, %1, %PaUtil_ValidateStreamPointer.exit
  %.0 = phi i64 [ %10, %PaUtil_ValidateStreamPointer.exit ], [ 0, %1 ], [ 0, %4 ]
  ret i64 %.0
}